target datalayout = "e-m:e-p270:32:32-p271:32:32-p272:64:64-i64:64-i128:128-f80:128-n8:16:32:64-S128"
target triple = "x86_64-pc-linux-gnu"

; Function Attrs: nounwind uwtable
define internal void @extract_odd2avg_c(ptr noundef %0, ptr noundef %1, ptr noundef %2, ptr noundef %3, i32 noundef %4) #0 {
  %6 = alloca ptr, align 8
  %7 = alloca ptr, align 8
  %8 = alloca ptr, align 8
  %9 = alloca ptr, align 8
  %10 = alloca i32, align 4
  store ptr %0, ptr %6, align 8, !tbaa !4
  store ptr %1, ptr %7, align 8, !tbaa !4
  store ptr %2, ptr %8, align 8, !tbaa !4
  store ptr %3, ptr %9, align 8, !tbaa !4
  store i32 %4, ptr %10, align 4, !tbaa !9
  %11 = load i32, ptr %10, align 4, !tbaa !9
  %12 = load ptr, ptr %8, align 8, !tbaa !4
  %13 = sext i32 %11 to i64
  %14 = getelementptr inbounds i8, ptr %12, i64 %13
  store ptr %14, ptr %8, align 8, !tbaa !4
  %15 = load i32, ptr %10, align 4, !tbaa !9
  %16 = load ptr, ptr %9, align 8, !tbaa !4
  %17 = sext i32 %15 to i64
  %18 = getelementptr inbounds i8, ptr %16, i64 %17
  store ptr %18, ptr %9, align 8, !tbaa !4
  %19 = load i32, ptr %10, align 4, !tbaa !9
  %20 = mul nsw i32 %19, 4
  %21 = load ptr, ptr %6, align 8, !tbaa !4
  %22 = sext i32 %20 to i64
  %23 = getelementptr inbounds i8, ptr %21, i64 %22
  store ptr %23, ptr %6, align 8, !tbaa !4
  %24 = load i32, ptr %10, align 4, !tbaa !9
  %25 = mul nsw i32 %24, 4
  %26 = load ptr, ptr %7, align 8, !tbaa !4
  %27 = sext i32 %25 to i64
  %28 = getelementptr inbounds i8, ptr %26, i64 %27
  store ptr %28, ptr %7, align 8, !tbaa !4
  %29 = load i32, ptr %10, align 4, !tbaa !9
  %30 = sub nsw i32 0, %29
  store i32 %30, ptr %10, align 4, !tbaa !9
  %31 = load ptr, ptr %6, align 8, !tbaa !4
  %32 = getelementptr inbounds nuw i8, ptr %31, i32 1
  store ptr %32, ptr %6, align 8, !tbaa !4
  %33 = load ptr, ptr %7, align 8, !tbaa !4
  %34 = getelementptr inbounds nuw i8, ptr %33, i32 1
  store ptr %34, ptr %7, align 8, !tbaa !4
  br label %35

35:                                               ; preds = %38, %5
  %36 = load i32, ptr %10, align 4, !tbaa !9
  %37 = icmp slt i32 %36, 0
  br i1 %37, label %38, label %87

38:                                               ; preds = %35
  %39 = load ptr, ptr %6, align 8, !tbaa !4
  %40 = load i32, ptr %10, align 4, !tbaa !9
  %41 = mul nsw i32 4, %40
  %42 = add nsw i32 %41, 0
  %43 = sext i32 %42 to i64
  %44 = getelementptr inbounds i8, ptr %39, i64 %43
  %45 = load i8, ptr %44, align 1, !tbaa !13
  %46 = zext i8 %45 to i32
  %47 = load ptr, ptr %7, align 8, !tbaa !4
  %48 = load i32, ptr %10, align 4, !tbaa !9
  %49 = mul nsw i32 4, %48
  %50 = add nsw i32 %49, 0
  %51 = sext i32 %50 to i64
  %52 = getelementptr inbounds i8, ptr %47, i64 %51
  %53 = load i8, ptr %52, align 1, !tbaa !13
  %54 = zext i8 %53 to i32
  %55 = add nsw i32 %46, %54
  %56 = ashr i32 %55, 1
  %57 = trunc i32 %56 to i8
  %58 = load ptr, ptr %8, align 8, !tbaa !4
  %59 = load i32, ptr %10, align 4, !tbaa !9
  %60 = sext i32 %59 to i64
  %61 = getelementptr inbounds i8, ptr %58, i64 %60
  store i8 %57, ptr %61, align 1, !tbaa !13
  %62 = load ptr, ptr %6, align 8, !tbaa !4
  %63 = load i32, ptr %10, align 4, !tbaa !9
  %64 = mul nsw i32 4, %63
  %65 = add nsw i32 %64, 2
  %66 = sext i32 %65 to i64
  %67 = getelementptr inbounds i8, ptr %62, i64 %66
  %68 = load i8, ptr %67, align 1, !tbaa !13
  %69 = zext i8 %68 to i32
  %70 = load ptr, ptr %7, align 8, !tbaa !4
  %71 = load i32, ptr %10, align 4, !tbaa !9
  %72 = mul nsw i32 4, %71
  %73 = add nsw i32 %72, 2
  %74 = sext i32 %73 to i64
  %75 = getelementptr inbounds i8, ptr %70, i64 %74
  %76 = load i8, ptr %75, align 1, !tbaa !13
  %77 = zext i8 %76 to i32
  %78 = add nsw i32 %69, %77
  %79 = ashr i32 %78, 1
  %80 = trunc i32 %79 to i8
  %81 = load ptr, ptr %9, align 8, !tbaa !4
  %82 = load i32, ptr %10, align 4, !tbaa !9
  %83 = sext i32 %82 to i64
  %84 = getelementptr inbounds i8, ptr %81, i64 %83
  store i8 %80, ptr %84, align 1, !tbaa !13
  %85 = load i32, ptr %10, align 4, !tbaa !9
  %86 = add nsw i32 %85, 1
  store i32 %86, ptr %10, align 4, !tbaa !9
  br label %35, !llvm.loop !106

87:                                               ; preds = %35
  ret void
}

; Function Attrs: nounwind uwtable
define internal void @extract_even_c(ptr noundef %0, ptr noundef %1, i32 noundef %2) #0 {
  %4 = alloca ptr, align 8
  %5 = alloca ptr, align 8
  %6 = alloca i32, align 4
  store ptr %0, ptr %4, align 8, !tbaa !4
  store ptr %1, ptr %5, align 8, !tbaa !4
  store i32 %2, ptr %6, align 4, !tbaa !9
  %7 = load i32, ptr %6, align 4, !tbaa !9
  %8 = load ptr, ptr %5, align 8, !tbaa !4
  %9 = sext i32 %7 to i64
  %10 = getelementptr inbounds i8, ptr %8, i64 %9
  store ptr %10, ptr %5, align 8, !tbaa !4
  %11 = load i32, ptr %6, align 4, !tbaa !9
  %12 = mul nsw i32 %11, 2
  %13 = load ptr, ptr %4, align 8, !tbaa !4
  %14 = sext i32 %12 to i64
  %15 = getelementptr inbounds i8, ptr %13, i64 %14
  store ptr %15, ptr %4, align 8, !tbaa !4
  %16 = load i32, ptr %6, align 4, !tbaa !9
  %17 = sub nsw i32 0, %16
  store i32 %17, ptr %6, align 4, !tbaa !9
  br label %18

18:                                               ; preds = %21, %3
  %19 = load i32, ptr %6, align 4, !tbaa !9
  %20 = icmp slt i32 %19, 0
  br i1 %20, label %21, label %34

21:                                               ; preds = %18
  %22 = load ptr, ptr %4, align 8, !tbaa !4
  %23 = load i32, ptr %6, align 4, !tbaa !9
  %24 = mul nsw i32 2, %23
  %25 = sext i32 %24 to i64
  %26 = getelementptr inbounds i8, ptr %22, i64 %25
  %27 = load i8, ptr %26, align 1, !tbaa !13
  %28 = load ptr, ptr %5, align 8, !tbaa !4
  %29 = load i32, ptr %6, align 4, !tbaa !9
  %30 = sext i32 %29 to i64
  %31 = getelementptr inbounds i8, ptr %28, i64 %30
  store i8 %27, ptr %31, align 1, !tbaa !13
  %32 = load i32, ptr %6, align 4, !tbaa !9
  %33 = add nsw i32 %32, 1
  store i32 %33, ptr %6, align 4, !tbaa !9
  br label %18, !llvm.loop !103

34:                                               ; preds = %18
  ret void
}

; Function Attrs: nounwind uwtable
define internal void @yuyvtoyuv420_c(ptr noundef %0, ptr noundef %1, ptr noundef %2, ptr noundef %3, i32 noundef %4, i32 noundef %5, i32 noundef %6, i32 noundef %7, i32 noundef %8) #0 {
  %10 = alloca ptr, align 8
  %11 = alloca ptr, align 8
  %12 = alloca ptr, align 8
  %13 = alloca ptr, align 8
  %14 = alloca i32, align 4
  %15 = alloca i32, align 4
  %16 = alloca i32, align 4
  %17 = alloca i32, align 4
  %18 = alloca i32, align 4
  %19 = alloca i32, align 4
  %20 = alloca i32, align 4
  store ptr %0, ptr %10, align 8, !tbaa !4
  store ptr %1, ptr %11, align 8, !tbaa !4
  store ptr %2, ptr %12, align 8, !tbaa !4
  store ptr %3, ptr %13, align 8, !tbaa !4
  store i32 %4, ptr %14, align 4, !tbaa !9
  store i32 %5, ptr %15, align 4, !tbaa !9
  store i32 %6, ptr %16, align 4, !tbaa !9
  store i32 %7, ptr %17, align 4, !tbaa !9
  store i32 %8, ptr %18, align 4, !tbaa !9
  call void @llvm.lifetime.start.p0(i64 4, ptr %19) #5
  call void @llvm.lifetime.start.p0(i64 4, ptr %20) #5
  %21 = load i32, ptr %14, align 4, !tbaa !9
  %22 = add nsw i32 %21, 2
  %23 = sub nsw i32 %22, 1
  %24 = ashr i32 %23, 1
  store i32 %24, ptr %20, align 4, !tbaa !9
  store i32 0, ptr %19, align 4, !tbaa !9
  br label %25

25:                                               ; preds = %63, %9
  %26 = load i32, ptr %19, align 4, !tbaa !9
  %27 = load i32, ptr %15, align 4, !tbaa !9
  %28 = icmp slt i32 %26, %27
  br i1 %28, label %29, label %66

29:                                               ; preds = %25
  %30 = load ptr, ptr %13, align 8, !tbaa !4
  %31 = load ptr, ptr %10, align 8, !tbaa !4
  %32 = load i32, ptr %14, align 4, !tbaa !9
  call void @extract_even_c(ptr noundef %30, ptr noundef %31, i32 noundef %32)
  %33 = load i32, ptr %19, align 4, !tbaa !9
  %34 = and i32 %33, 1
  %35 = icmp ne i32 %34, 0
  br i1 %35, label %36, label %54

36:                                               ; preds = %29
  %37 = load ptr, ptr %13, align 8, !tbaa !4
  %38 = load i32, ptr %18, align 4, !tbaa !9
  %39 = sext i32 %38 to i64
  %40 = sub i64 0, %39
  %41 = getelementptr inbounds i8, ptr %37, i64 %40
  %42 = load ptr, ptr %13, align 8, !tbaa !4
  %43 = load ptr, ptr %11, align 8, !tbaa !4
  %44 = load ptr, ptr %12, align 8, !tbaa !4
  %45 = load i32, ptr %20, align 4, !tbaa !9
  call void @extract_odd2avg_c(ptr noundef %41, ptr noundef %42, ptr noundef %43, ptr noundef %44, i32 noundef %45)
  %46 = load i32, ptr %17, align 4, !tbaa !9
  %47 = load ptr, ptr %11, align 8, !tbaa !4
  %48 = sext i32 %46 to i64
  %49 = getelementptr inbounds i8, ptr %47, i64 %48
  store ptr %49, ptr %11, align 8, !tbaa !4
  %50 = load i32, ptr %17, align 4, !tbaa !9
  %51 = load ptr, ptr %12, align 8, !tbaa !4
  %52 = sext i32 %50 to i64
  %53 = getelementptr inbounds i8, ptr %51, i64 %52
  store ptr %53, ptr %12, align 8, !tbaa !4
  br label %54

54:                                               ; preds = %36, %29
  %55 = load i32, ptr %18, align 4, !tbaa !9
  %56 = load ptr, ptr %13, align 8, !tbaa !4
  %57 = sext i32 %55 to i64
  %58 = getelementptr inbounds i8, ptr %56, i64 %57
  store ptr %58, ptr %13, align 8, !tbaa !4
  %59 = load i32, ptr %16, align 4, !tbaa !9
  %60 = load ptr, ptr %10, align 8, !tbaa !4
  %61 = sext i32 %59 to i64
  %62 = getelementptr inbounds i8, ptr %60, i64 %61
  store ptr %62, ptr %10, align 8, !tbaa !4
  br label %63

63:                                               ; preds = %54
  %64 = load i32, ptr %19, align 4, !tbaa !9
  %65 = add nsw i32 %64, 1
  store i32 %65, ptr %19, align 4, !tbaa !9
  br label %25, !llvm.loop !97

66:                                               ; preds = %25
  call void @llvm.lifetime.end.p0(i64 4, ptr %20) #5
  call void @llvm.lifetime.end.p0(i64 4, ptr %19) #5
  ret void
}