; Function Attrs: nofree norecurse nosync nounwind memory(argmem: readwrite) uwtable
define internal void @yuyvtoyuv420_c(ptr noundef writeonly captures(none) %0, ptr noundef writeonly captures(none) %1, ptr noundef writeonly captures(none) %2, ptr noundef readonly captures(none) %3, i32 noundef %4, i32 noundef %5, i32 noundef %6, i32 noundef %7, i32 noundef %8) #0 {
  %10 = icmp sgt i32 %5, 0
  br i1 %10, label %.lr.ph, label %._crit_edge

.lr.ph:                                           ; preds = %9
  %11 = add i32 %4, 1
  %12 = ashr i32 %11, 1
  %13 = sext i32 %4 to i64
  %14 = shl nsw i32 %4, 1
  %15 = sext i32 %14 to i64
  %16 = icmp sgt i32 %4, 0
  %17 = sub nsw i32 0, %4
  %18 = sext i32 %17 to i64
  %19 = sext i32 %8 to i64
  %20 = sub nsw i64 0, %19
  %21 = sext i32 %12 to i64
  %22 = shl nsw i32 %12, 2
  %23 = sext i32 %22 to i64
  %24 = icmp sgt i32 %12, 0
  %25 = sub nsw i32 0, %12
  %26 = sext i32 %25 to i64
  %27 = sext i32 %7 to i64
  %28 = sext i32 %6 to i64
  br i1 %24, label %.lr.ph.split.us, label %.lr.ph.split

.lr.ph.split.us:                                  ; preds = %.lr.ph
  br i1 %16, label %.lr.ph.preheader.i.us.us, label %extract_even_c.exit.us

.lr.ph.preheader.i.us.us:                         ; preds = %.lr.ph.split.us, %65
  %.035.us.us = phi ptr [ %67, %65 ], [ %0, %.lr.ph.split.us ]
  %.02134.us.us = phi i32 [ %68, %65 ], [ 0, %.lr.ph.split.us ]
  %.02233.us.us = phi ptr [ %.1.us.us, %65 ], [ %1, %.lr.ph.split.us ]
  %.02332.us.us = phi ptr [ %.124.us.us, %65 ], [ %2, %.lr.ph.split.us ]
  %.02531.us.us = phi ptr [ %66, %65 ], [ %3, %.lr.ph.split.us ]
  %29 = getelementptr inbounds nuw i8, ptr %.035.us.us, i64 %13
  %30 = getelementptr inbounds nuw i8, ptr %.02531.us.us, i64 %15
  br label %.lr.ph.i.us.us

.lr.ph.i.us.us:                                   ; preds = %.lr.ph.i.us.us, %.lr.ph.preheader.i.us.us
  %indvars.iv.i.us.us = phi i64 [ %18, %.lr.ph.preheader.i.us.us ], [ %indvars.iv.next.i.us.us, %.lr.ph.i.us.us ]
  %31 = shl nsw i64 %indvars.iv.i.us.us, 1
  %32 = getelementptr inbounds i8, ptr %30, i64 %31
  %33 = load i8, ptr %32, align 1, !tbaa !8
  %34 = getelementptr inbounds i8, ptr %29, i64 %indvars.iv.i.us.us
  store i8 %33, ptr %34, align 1, !tbaa !8
  %indvars.iv.next.i.us.us = add nsw i64 %indvars.iv.i.us.us, 1
  %35 = and i64 %indvars.iv.next.i.us.us, 4294967295
  %exitcond.not.i.us.us = icmp eq i64 %35, 0
  br i1 %exitcond.not.i.us.us, label %extract_even_c.exit.loopexit.us.us, label %.lr.ph.i.us.us, !llvm.loop !93

.lr.ph.preheader.i26.us.us:                       ; preds = %extract_even_c.exit.loopexit.us.us
  %36 = getelementptr inbounds i8, ptr %.02531.us.us, i64 %20
  %37 = getelementptr inbounds nuw i8, ptr %.02233.us.us, i64 %21
  %38 = getelementptr inbounds nuw i8, ptr %.02332.us.us, i64 %21
  %39 = getelementptr inbounds nuw i8, ptr %36, i64 %23
  %40 = getelementptr inbounds nuw i8, ptr %.02531.us.us, i64 %23
  %41 = getelementptr inbounds nuw i8, ptr %39, i64 1
  %42 = getelementptr inbounds nuw i8, ptr %40, i64 1
  br label %.lr.ph.i27.us.us

.lr.ph.i27.us.us:                                 ; preds = %.lr.ph.i27.us.us, %.lr.ph.preheader.i26.us.us
  %indvars.iv.i28.us.us = phi i64 [ %26, %.lr.ph.preheader.i26.us.us ], [ %indvars.iv.next.i29.us.us, %.lr.ph.i27.us.us ]
  %43 = shl nsw i64 %indvars.iv.i28.us.us, 2
  %44 = getelementptr inbounds i8, ptr %41, i64 %43
  %45 = load i8, ptr %44, align 1, !tbaa !8
  %46 = zext i8 %45 to i16
  %47 = getelementptr inbounds i8, ptr %42, i64 %43
  %48 = load i8, ptr %47, align 1, !tbaa !8
  %49 = zext i8 %48 to i16
  %50 = add nuw nsw i16 %49, %46
  %51 = lshr i16 %50, 1
  %52 = trunc nuw i16 %51 to i8
  %53 = getelementptr inbounds i8, ptr %37, i64 %indvars.iv.i28.us.us
  store i8 %52, ptr %53, align 1, !tbaa !8
  %54 = or disjoint i64 %43, 2
  %55 = getelementptr inbounds i8, ptr %41, i64 %54
  %56 = load i8, ptr %55, align 1, !tbaa !8
  %57 = zext i8 %56 to i16
  %58 = getelementptr inbounds i8, ptr %42, i64 %54
  %59 = load i8, ptr %58, align 1, !tbaa !8
  %60 = zext i8 %59 to i16
  %61 = add nuw nsw i16 %60, %57
  %62 = lshr i16 %61, 1
  %63 = trunc nuw i16 %62 to i8
  %64 = getelementptr inbounds i8, ptr %38, i64 %indvars.iv.i28.us.us
  store i8 %63, ptr %64, align 1, !tbaa !8
  %indvars.iv.next.i29.us.us = add nsw i64 %indvars.iv.i28.us.us, 1
  %exitcond.not.i30.us.us = icmp eq i64 %indvars.iv.next.i29.us.us, 0
  br i1 %exitcond.not.i30.us.us, label %extract_odd2avg_c.exit.loopexit.us.us, label %.lr.ph.i27.us.us, !llvm.loop !98

65:                                               ; preds = %extract_odd2avg_c.exit.loopexit.us.us, %extract_even_c.exit.loopexit.us.us
  %.124.us.us = phi ptr [ %70, %extract_odd2avg_c.exit.loopexit.us.us ], [ %.02332.us.us, %extract_even_c.exit.loopexit.us.us ]
  %.1.us.us = phi ptr [ %69, %extract_odd2avg_c.exit.loopexit.us.us ], [ %.02233.us.us, %extract_even_c.exit.loopexit.us.us ]
  %66 = getelementptr inbounds i8, ptr %.02531.us.us, i64 %19
  %67 = getelementptr inbounds i8, ptr %.035.us.us, i64 %28
  %68 = add nuw nsw i32 %.02134.us.us, 1
  %exitcond57.not = icmp eq i32 %68, %5
  br i1 %exitcond57.not, label %._crit_edge, label %.lr.ph.preheader.i.us.us, !llvm.loop !99

extract_odd2avg_c.exit.loopexit.us.us:            ; preds = %.lr.ph.i27.us.us
  %69 = getelementptr inbounds i8, ptr %.02233.us.us, i64 %27
  %70 = getelementptr inbounds i8, ptr %.02332.us.us, i64 %27
  br label %65

extract_even_c.exit.loopexit.us.us:               ; preds = %.lr.ph.i.us.us
  %71 = and i32 %.02134.us.us, 1
  %.not.us.us = icmp eq i32 %71, 0
  br i1 %.not.us.us, label %65, label %.lr.ph.preheader.i26.us.us

extract_even_c.exit.us:                           ; preds = %.lr.ph.split.us, %102
  %.02134.us = phi i32 [ %104, %102 ], [ 0, %.lr.ph.split.us ]
  %.02233.us = phi ptr [ %.1.us, %102 ], [ %1, %.lr.ph.split.us ]
  %.02332.us = phi ptr [ %.124.us, %102 ], [ %2, %.lr.ph.split.us ]
  %.02531.us = phi ptr [ %103, %102 ], [ %3, %.lr.ph.split.us ]
  %72 = and i32 %.02134.us, 1
  %.not.us = icmp eq i32 %72, 0
  br i1 %.not.us, label %102, label %.lr.ph.preheader.i26.us

.lr.ph.preheader.i26.us:                          ; preds = %extract_even_c.exit.us
  %73 = getelementptr inbounds i8, ptr %.02531.us, i64 %20
  %74 = getelementptr inbounds nuw i8, ptr %.02233.us, i64 %21
  %75 = getelementptr inbounds nuw i8, ptr %.02332.us, i64 %21
  %76 = getelementptr inbounds nuw i8, ptr %73, i64 %23
  %77 = getelementptr inbounds nuw i8, ptr %.02531.us, i64 %23
  %78 = getelementptr inbounds nuw i8, ptr %76, i64 1
  %79 = getelementptr inbounds nuw i8, ptr %77, i64 1
  br label %.lr.ph.i27.us

.lr.ph.i27.us:                                    ; preds = %.lr.ph.i27.us, %.lr.ph.preheader.i26.us
  %indvars.iv.i28.us = phi i64 [ %26, %.lr.ph.preheader.i26.us ], [ %indvars.iv.next.i29.us, %.lr.ph.i27.us ]
  %80 = shl nsw i64 %indvars.iv.i28.us, 2
  %81 = getelementptr inbounds i8, ptr %78, i64 %80
  %82 = load i8, ptr %81, align 1, !tbaa !8
  %83 = zext i8 %82 to i16
  %84 = getelementptr inbounds i8, ptr %79, i64 %80
  %85 = load i8, ptr %84, align 1, !tbaa !8
  %86 = zext i8 %85 to i16
  %87 = add nuw nsw i16 %86, %83
  %88 = lshr i16 %87, 1
  %89 = trunc nuw i16 %88 to i8
  %90 = getelementptr inbounds i8, ptr %74, i64 %indvars.iv.i28.us
  store i8 %89, ptr %90, align 1, !tbaa !8
  %91 = or disjoint i64 %80, 2
  %92 = getelementptr inbounds i8, ptr %78, i64 %91
  %93 = load i8, ptr %92, align 1, !tbaa !8
  %94 = zext i8 %93 to i16
  %95 = getelementptr inbounds i8, ptr %79, i64 %91
  %96 = load i8, ptr %95, align 1, !tbaa !8
  %97 = zext i8 %96 to i16
  %98 = add nuw nsw i16 %97, %94
  %99 = lshr i16 %98, 1
  %100 = trunc nuw i16 %99 to i8
  %101 = getelementptr inbounds i8, ptr %75, i64 %indvars.iv.i28.us
  store i8 %100, ptr %101, align 1, !tbaa !8
  %indvars.iv.next.i29.us = add nsw i64 %indvars.iv.i28.us, 1
  %exitcond.not.i30.us = icmp eq i64 %indvars.iv.next.i29.us, 0
  br i1 %exitcond.not.i30.us, label %extract_odd2avg_c.exit.loopexit.us, label %.lr.ph.i27.us, !llvm.loop !98

102:                                              ; preds = %extract_odd2avg_c.exit.loopexit.us, %extract_even_c.exit.us
  %.124.us = phi ptr [ %106, %extract_odd2avg_c.exit.loopexit.us ], [ %.02332.us, %extract_even_c.exit.us ]
  %.1.us = phi ptr [ %105, %extract_odd2avg_c.exit.loopexit.us ], [ %.02233.us, %extract_even_c.exit.us ]
  %103 = getelementptr inbounds i8, ptr %.02531.us, i64 %19
  %104 = add nuw nsw i32 %.02134.us, 1
  %exitcond56.not = icmp eq i32 %104, %5
  br i1 %exitcond56.not, label %._crit_edge, label %extract_even_c.exit.us, !llvm.loop !99

extract_odd2avg_c.exit.loopexit.us:               ; preds = %.lr.ph.i27.us
  %105 = getelementptr inbounds i8, ptr %.02233.us, i64 %27
  %106 = getelementptr inbounds i8, ptr %.02332.us, i64 %27
  br label %102

.lr.ph.split:                                     ; preds = %.lr.ph
  br i1 %16, label %.lr.ph.preheader.i.us41, label %._crit_edge

.lr.ph.preheader.i.us41:                          ; preds = %.lr.ph.split, %extract_even_c.exit.loopexit.us51
  %.035.us36 = phi ptr [ %115, %extract_even_c.exit.loopexit.us51 ], [ %0, %.lr.ph.split ]
  %.02134.us37 = phi i32 [ %116, %extract_even_c.exit.loopexit.us51 ], [ 0, %.lr.ph.split ]
  %.02531.us40 = phi ptr [ %114, %extract_even_c.exit.loopexit.us51 ], [ %3, %.lr.ph.split ]
  %107 = getelementptr inbounds nuw i8, ptr %.035.us36, i64 %13
  %108 = getelementptr inbounds nuw i8, ptr %.02531.us40, i64 %15
  br label %.lr.ph.i.us42

.lr.ph.i.us42:                                    ; preds = %.lr.ph.i.us42, %.lr.ph.preheader.i.us41
  %indvars.iv.i.us43 = phi i64 [ %18, %.lr.ph.preheader.i.us41 ], [ %indvars.iv.next.i.us44, %.lr.ph.i.us42 ]
  %109 = shl nsw i64 %indvars.iv.i.us43, 1
  %110 = getelementptr inbounds i8, ptr %108, i64 %109
  %111 = load i8, ptr %110, align 1, !tbaa !8
  %112 = getelementptr inbounds i8, ptr %107, i64 %indvars.iv.i.us43
  store i8 %111, ptr %112, align 1, !tbaa !8
  %indvars.iv.next.i.us44 = add nsw i64 %indvars.iv.i.us43, 1
  %113 = and i64 %indvars.iv.next.i.us44, 4294967295
  %exitcond.not.i.us45 = icmp eq i64 %113, 0
  br i1 %exitcond.not.i.us45, label %extract_even_c.exit.loopexit.us51, label %.lr.ph.i.us42, !llvm.loop !93

extract_even_c.exit.loopexit.us51:                ; preds = %.lr.ph.i.us42
  %114 = getelementptr inbounds i8, ptr %.02531.us40, i64 %19
  %115 = getelementptr inbounds i8, ptr %.035.us36, i64 %28
  %116 = add nuw nsw i32 %.02134.us37, 1
  %exitcond.not = icmp eq i32 %116, %5
  br i1 %exitcond.not, label %._crit_edge, label %.lr.ph.preheader.i.us41, !llvm.loop !99

._crit_edge:                                      ; preds = %extract_even_c.exit.loopexit.us51, %102, %65, %.lr.ph.split, %9
  ret void
}